target datalayout = "e-m:e-p270:32:32-p271:32:32-p272:64:64-i64:64-i128:128-f80:128-n8:16:32:64-S128"
target triple = "x86_64-unknown-linux-gnu"

%"class.icu_75::UMutex" = type { [40 x i8], %"struct.std::atomic", ptr }
%"struct.std::atomic" = type { %"struct.std::__atomic_base" }
%"struct.std::__atomic_base" = type { ptr }
%"class.icu_75::TimeZoneNamesDelegate" = type { %"class.icu_75::TimeZoneNames", ptr }
%"class.icu_75::TimeZoneNames" = type { %"class.icu_75::UObject" }
%"class.icu_75::UObject" = type { ptr }
%"struct.icu_75::TimeZoneNamesCacheEntry" = type { ptr, i32, double }

@_ZN6icu_75L18gTimeZoneNamesLockE = internal global %"class.icu_75::UMutex" zeroinitializer, align 8
@_ZN6icu_7521TimeZoneNamesDelegateC1Ev = unnamed_addr alias void (ptr), ptr @_ZN6icu_7521TimeZoneNamesDelegateC2Ev

; Function Attrs: mustprogress uwtable
define noundef ptr @_ZNK6icu_7521TimeZoneNamesDelegate5cloneEv(ptr noundef nonnull align 8 dereferenceable(16) %this) unnamed_addr #1 align 2 personality ptr @__gxx_personality_v0 {
entry:
  %this.addr = alloca ptr, align 8
  %other = alloca ptr, align 8
  %cleanup.cond = alloca i1, align 1
  %exn.slot = alloca ptr, align 8
  %ehselector.slot = alloca i32, align 4
  store ptr %this, ptr %this.addr, align 8
  %this1 = load ptr, ptr %this.addr, align 8
  %call = call noundef ptr @_ZN6icu_757UMemorynwEm(i64 noundef 16) #9
  %new.isnull = icmp eq ptr %call, null
  store i1 false, ptr %cleanup.cond, align 1
  br i1 %new.isnull, label %new.cont, label %new.notnull

new.notnull:                                      ; preds = %entry
  store i1 true, ptr %cleanup.cond, align 1
  invoke void @_ZN6icu_7521TimeZoneNamesDelegateC1Ev(ptr noundef nonnull align 8 dereferenceable(16) %call)
          to label %invoke.cont unwind label %lpad

invoke.cont:                                      ; preds = %new.notnull
  br label %new.cont

new.cont:                                         ; preds = %invoke.cont, %entry
  %0 = phi ptr [ %call, %invoke.cont ], [ null, %entry ]
  store ptr %0, ptr %other, align 8
  %1 = load ptr, ptr %other, align 8
  %cmp = icmp ne ptr %1, null
  br i1 %cmp, label %if.then, label %if.end

if.then:                                          ; preds = %new.cont
  call void @umtx_lock_75(ptr noundef @_ZN6icu_75L18gTimeZoneNamesLockE)
  %fTZnamesCacheEntry = getelementptr inbounds %"class.icu_75::TimeZoneNamesDelegate", ptr %this1, i32 0, i32 1
  %2 = load ptr, ptr %fTZnamesCacheEntry, align 8
  %refCount = getelementptr inbounds %"struct.icu_75::TimeZoneNamesCacheEntry", ptr %2, i32 0, i32 1
  %3 = load i32, ptr %refCount, align 8
  %inc = add nsw i32 %3, 1
  store i32 %inc, ptr %refCount, align 8
  %fTZnamesCacheEntry2 = getelementptr inbounds %"class.icu_75::TimeZoneNamesDelegate", ptr %this1, i32 0, i32 1
  %4 = load ptr, ptr %fTZnamesCacheEntry2, align 8
  %5 = load ptr, ptr %other, align 8
  %fTZnamesCacheEntry3 = getelementptr inbounds %"class.icu_75::TimeZoneNamesDelegate", ptr %5, i32 0, i32 1
  store ptr %4, ptr %fTZnamesCacheEntry3, align 8
  call void @umtx_unlock_75(ptr noundef @_ZN6icu_75L18gTimeZoneNamesLockE)
  br label %if.end

lpad:                                             ; preds = %new.notnull
  %6 = landingpad { ptr, i32 }
          cleanup
  %7 = extractvalue { ptr, i32 } %6, 0
  store ptr %7, ptr %exn.slot, align 8
  %8 = extractvalue { ptr, i32 } %6, 1
  store i32 %8, ptr %ehselector.slot, align 4
  %cleanup.is_active = load i1, ptr %cleanup.cond, align 1
  br i1 %cleanup.is_active, label %cleanup.action, label %cleanup.done

cleanup.action:                                   ; preds = %lpad
  call void @_ZN6icu_757UMemorydlEPv(ptr noundef %call) #9
  br label %cleanup.done

cleanup.done:                                     ; preds = %cleanup.action, %lpad
  br label %eh.resume

if.end:                                           ; preds = %if.then, %new.cont
  %9 = load ptr, ptr %other, align 8
  ret ptr %9

eh.resume:                                        ; preds = %cleanup.done
  %exn = load ptr, ptr %exn.slot, align 8
  %sel = load i32, ptr %ehselector.slot, align 4
  %lpad.val = insertvalue { ptr, i32 } poison, ptr %exn, 0
  %lpad.val4 = insertvalue { ptr, i32 } %lpad.val, i32 %sel, 1
  resume { ptr, i32 } %lpad.val4
}