; Function Attrs: mustprogress uwtable
define noundef ptr @_ZNK6icu_7521TimeZoneNamesDelegate5cloneEv(ptr nocapture noundef nonnull readonly align 8 dereferenceable(16) %this) unnamed_addr #1 align 2 personality ptr @__gxx_personality_v0 {
entry:
  %call = tail call noundef ptr @_ZN6icu_757UMemorynwEm(i64 noundef 16) #17
  %new.isnull = icmp eq ptr %call, null
  br i1 %new.isnull, label %if.end, label %new.notnull

new.notnull:                                      ; preds = %entry
  invoke void @_ZN6icu_7521TimeZoneNamesDelegateC1Ev(ptr noundef nonnull align 8 dereferenceable(16) %call)
          to label %if.then unwind label %lpad

if.then:                                          ; preds = %new.notnull
  tail call void @umtx_lock_75(ptr noundef nonnull @_ZN6icu_75L18gTimeZoneNamesLockE)
  %fTZnamesCacheEntry = getelementptr inbounds i8, ptr %this, i64 8
  %0 = load ptr, ptr %fTZnamesCacheEntry, align 8
  %refCount = getelementptr inbounds i8, ptr %0, i64 8
  %1 = load i32, ptr %refCount, align 8
  %inc = add nsw i32 %1, 1
  store i32 %inc, ptr %refCount, align 8
  %2 = load ptr, ptr %fTZnamesCacheEntry, align 8
  %fTZnamesCacheEntry3 = getelementptr inbounds i8, ptr %call, i64 8
  store ptr %2, ptr %fTZnamesCacheEntry3, align 8
  tail call void @umtx_unlock_75(ptr noundef nonnull @_ZN6icu_75L18gTimeZoneNamesLockE)
  br label %if.end

lpad:                                             ; preds = %new.notnull
  %3 = landingpad { ptr, i32 }
          cleanup
  tail call void @_ZN6icu_757UMemorydlEPv(ptr noundef nonnull %call) #17
  resume { ptr, i32 } %3

if.end:                                           ; preds = %entry, %if.then
  ret ptr %call
}